target datalayout = "e-m:e-p270:32:32-p271:32:32-p272:64:64-i64:64-i128:128-f80:128-n8:16:32:64-S128"
target triple = "x86_64-pc-linux-gnu"

%"struct.std::_Vector_base.14" = type { %"struct.std::_Vector_base<long long, std::allocator<long long>>::_Vector_impl" }
%"struct.std::_Vector_base<long long, std::allocator<long long>>::_Vector_impl" = type { %"struct.std::_Vector_base<long long, std::allocator<long long>>::_Vector_impl_data" }
%"struct.std::_Vector_base<long long, std::allocator<long long>>::_Vector_impl_data" = type { ptr, ptr, ptr }

; Function Attrs: mustprogress nounwind uwtable
define linkonce_odr hidden noundef nonnull align 8 dereferenceable(8) ptr @_ZNKSt6vectorIxSaIxEEixEm(ptr noundef nonnull align 8 dereferenceable(24) %0, i64 noundef %1) #7 comdat align 2 {
  %3 = alloca ptr, align 8
  %4 = alloca i64, align 8
  store ptr %0, ptr %3, align 8
  store i64 %1, ptr %4, align 8
  %5 = load ptr, ptr %3, align 8
  %6 = getelementptr inbounds %"struct.std::_Vector_base.14", ptr %5, i32 0, i32 0
  %7 = getelementptr inbounds %"struct.std::_Vector_base<long long, std::allocator<long long>>::_Vector_impl_data", ptr %6, i32 0, i32 0
  %8 = load ptr, ptr %7, align 8
  %9 = load i64, ptr %4, align 8
  %10 = getelementptr inbounds i64, ptr %8, i64 %9
  ret ptr %10
}

; Function Attrs: mustprogress nounwind uwtable
define linkonce_odr hidden noundef i64 @_ZNKSt6vectorIxSaIxEE4sizeEv(ptr noundef nonnull align 8 dereferenceable(24) %0) #7 comdat align 2 {
  %2 = alloca ptr, align 8
  store ptr %0, ptr %2, align 8
  %3 = load ptr, ptr %2, align 8
  %4 = getelementptr inbounds %"struct.std::_Vector_base.14", ptr %3, i32 0, i32 0
  %5 = getelementptr inbounds %"struct.std::_Vector_base<long long, std::allocator<long long>>::_Vector_impl_data", ptr %4, i32 0, i32 1
  %6 = load ptr, ptr %5, align 8
  %7 = getelementptr inbounds %"struct.std::_Vector_base.14", ptr %3, i32 0, i32 0
  %8 = getelementptr inbounds %"struct.std::_Vector_base<long long, std::allocator<long long>>::_Vector_impl_data", ptr %7, i32 0, i32 0
  %9 = load ptr, ptr %8, align 8
  %10 = ptrtoint ptr %6 to i64
  %11 = ptrtoint ptr %9 to i64
  %12 = sub i64 %10, %11
  %13 = sdiv exact i64 %12, 8
  ret i64 %13
}

; Function Attrs: mustprogress nounwind uwtable
define noundef i64 @_ZN6casadi13BSplineCommon3n_wERKSt6vectorIxSaIxEE(ptr noundef nonnull align 8 dereferenceable(24) %0) #7 align 2 {
  %2 = alloca ptr, align 8
  %3 = alloca i64, align 8
  %4 = alloca i64, align 8
  %5 = alloca i64, align 8
  store ptr %0, ptr %2, align 8
  %6 = load ptr, ptr %2, align 8
  %7 = call noundef i64 @_ZNKSt6vectorIxSaIxEE4sizeEv(ptr noundef nonnull align 8 dereferenceable(24) %6) #3
  store i64 %7, ptr %3, align 8
  store i64 0, ptr %4, align 8
  store i64 0, ptr %5, align 8
  br label %8

8:                                                ; preds = %21, %1
  %9 = load i64, ptr %5, align 8
  %10 = load i64, ptr %3, align 8
  %11 = sub nsw i64 %10, 1
  %12 = icmp slt i64 %9, %11
  br i1 %12, label %13, label %24

13:                                               ; preds = %8
  %14 = load ptr, ptr %2, align 8
  %15 = load i64, ptr %5, align 8
  %16 = call noundef nonnull align 8 dereferenceable(8) ptr @_ZNKSt6vectorIxSaIxEEixEm(ptr noundef nonnull align 8 dereferenceable(24) %14, i64 noundef %15) #3
  %17 = load i64, ptr %16, align 8
  %18 = add nsw i64 %17, 1
  %19 = load i64, ptr %4, align 8
  %20 = add nsw i64 %19, %18
  store i64 %20, ptr %4, align 8
  br label %21

21:                                               ; preds = %13
  %22 = load i64, ptr %5, align 8
  %23 = add nsw i64 %22, 1
  store i64 %23, ptr %5, align 8
  br label %8, !llvm.loop !7

24:                                               ; preds = %8
  %25 = load ptr, ptr %2, align 8
  %26 = load i64, ptr %3, align 8
  %27 = sub nsw i64 %26, 1
  %28 = call noundef nonnull align 8 dereferenceable(8) ptr @_ZNKSt6vectorIxSaIxEEixEm(ptr noundef nonnull align 8 dereferenceable(24) %25, i64 noundef %27) #3
  %29 = load i64, ptr %28, align 8
  %30 = mul nsw i64 2, %29
  %31 = add nsw i64 %30, 1
  %32 = load i64, ptr %4, align 8
  %33 = add nsw i64 %32, %31
  store i64 %33, ptr %4, align 8
  %34 = load i64, ptr %3, align 8
  %35 = add nsw i64 %34, 1
  %36 = load i64, ptr %4, align 8
  %37 = add nsw i64 %36, %35
  store i64 %37, ptr %4, align 8
  %38 = load i64, ptr %4, align 8
  ret i64 %38
}