; Function Attrs: mustprogress nofree norecurse nosync nounwind willreturn memory(read, inaccessiblemem: none) uwtable
define noundef i64 @_ZN6casadi13BSplineCommon3n_wERKSt6vectorIxSaIxEE(ptr nocapture noundef nonnull readonly align 8 dereferenceable(24) %0) local_unnamed_addr #8 align 2 {
  %2 = getelementptr inbounds i8, ptr %0, i64 8
  %3 = load ptr, ptr %2, align 8
  %4 = load ptr, ptr %0, align 8
  %5 = ptrtoint ptr %3 to i64
  %6 = ptrtoint ptr %4 to i64
  %7 = sub i64 %5, %6
  %8 = ashr exact i64 %7, 3
  %9 = add nsw i64 %8, -1
  %10 = icmp sgt i64 %8, 1
  br i1 %10, label %.lr.ph, label %._crit_edge

.lr.ph:                                           ; preds = %1, %.lr.ph
  %.015 = phi i64 [ %15, %.lr.ph ], [ 0, %1 ]
  %.01214 = phi i64 [ %14, %.lr.ph ], [ 0, %1 ]
  %11 = getelementptr inbounds i64, ptr %4, i64 %.015
  %12 = load i64, ptr %11, align 8
  %13 = add i64 %.01214, 1
  %14 = add i64 %13, %12
  %15 = add nuw nsw i64 %.015, 1
  %exitcond.not = icmp eq i64 %15, %9
  br i1 %exitcond.not, label %._crit_edge, label %.lr.ph, !llvm.loop !15

._crit_edge:                                      ; preds = %.lr.ph, %1
  %.012.lcssa = phi i64 [ 0, %1 ], [ %14, %.lr.ph ]
  %16 = getelementptr inbounds i64, ptr %4, i64 %9
  %17 = load i64, ptr %16, align 8
  %18 = shl nsw i64 %17, 1
  %19 = add nsw i64 %8, 2
  %20 = add i64 %19, %.012.lcssa
  %21 = add i64 %20, %18
  ret i64 %21
}